Certificate:
    Data:
        Version: 3 (0x2)
        Serial Number: 1 (0x1)
        Signature Algorithm: sha256WithRSAEncryption
        Issuer: C=UK, ST=Greater London, L=London, O=syk, OU=dsy
        Validity
            Not Before: Jul 21 07:17:45 2023 GMT
            Not After : Jul 20 07:17:45 2024 GMT
        Subject: C=UK, ST=Greater London, O=syk, OU=dsy, CN=localhost
        Subject Public Key Info:
            Public Key Algorithm: rsaEncryption
                Public-Key: (2048 bit)
                Modulus:
                    00:be:f9:13:fe:22:11:69:19:32:ec:f3:58:7b:0d:
                    a2:ed:62:0c:d3:e2:86:3f:23:9a:ef:6c:1d:7d:23:
                    9f:d2:02:57:51:68:4d:e0:e7:44:06:71:05:22:0b:
                    db:ac:f6:6e:8b:25:35:06:91:85:20:3d:cd:e6:8a:
                    bc:66:0e:ad:14:74:cf:96:95:86:c6:66:ce:35:46:
                    25:6f:4b:50:f7:e2:ab:83:ac:ac:6f:03:6c:cd:90:
                    a8:42:21:b0:92:ab:93:3a:47:40:60:4e:e5:ef:53:
                    c1:6a:10:b1:80:0c:d0:4d:fe:64:f7:17:03:19:b7:
                    4e:3d:8a:4b:c5:c8:78:31:7b:bf:c3:ba:42:6c:ac:
                    51:e8:cc:c2:89:7f:2d:b7:99:ce:85:9b:b1:40:c8:
                    c6:dc:38:64:53:13:cb:93:06:e9:89:61:a4:39:fa:
                    62:ea:0e:d6:97:be:4c:81:64:0e:4e:d0:2f:9f:0f:
                    b9:7e:cf:7e:a3:9e:82:e9:77:7c:11:4f:6a:1e:4b:
                    6e:a3:10:f2:c8:37:54:f4:6f:90:ad:e3:84:54:d2:
                    95:48:b2:8a:f9:55:3b:18:76:3a:c4:31:82:25:c9:
                    1e:ee:23:d7:d7:6a:9f:98:8c:42:af:eb:9a:6f:ba:
                    59:a9:88:53:fc:86:d4:31:4c:d5:f1:cb:67:20:fc:
                    6a:a3
                Exponent: 65537 (0x10001)
        X509v3 extensions:
            X509v3 Basic Constraints: 
                CA:FALSE
            X509v3 Subject Key Identifier: 
                66:05:32:B2:4E:01:69:9C:09:E5:07:A3:2E:7F:E2:D4:76:2D:6D:E6
            X509v3 Authority Key Identifier: 
                DirName:/C=UK/ST=Greater London/L=London/O=syk/OU=dsy
                serial:19:A8:BD:F4:99:63:CD:D2:01:85:51:BA:47:E3:F6:83:A9:06:12:9F
    Signature Algorithm: sha256WithRSAEncryption
    Signature Value:
        51:f0:f7:5d:68:65:c1:9c:f4:0a:c0:f5:a3:b6:45:b5:d3:7b:
        52:b8:22:cb:ee:62:70:3f:03:45:79:49:ff:4d:56:fd:53:30:
        18:8b:a2:d5:5c:c8:0b:14:b7:10:bb:e1:36:65:fc:97:73:6a:
        56:7f:59:4b:7e:c8:52:bf:d4:6d:eb:26:87:ea:5d:ca:10:6f:
        86:21:5c:ae:9d:90:b5:3d:8b:c6:19:63:be:a4:f1:4d:66:c1:
        00:dd:af:cc:f9:92:f9:3d:cd:07:a8:c7:c3:b7:14:12:6c:f1:
        e8:d6:48:5e:08:83:63:1d:34:58:7e:44:44:09:8f:75:97:0a:
        1a:60:05:de:eb:f1:74:00:fe:23:0d:dc:0c:49:25:68:80:18:
        ab:fd:a4:5e:1c:5f:f9:4e:55:95:4b:30:1c:3a:d9:6b:5f:b0:
        45:cf:19:02:3b:d3:cd:af:68:b0:0d:b3:36:f6:47:be:b0:57:
        60:ec:0e:f7:7a:99:36:fc:9e:f7:81:71:62:0d:6c:d7:df:5a:
        72:80:3e:28:c2:92:b6:ad:7a:53:45:96:8e:b3:f0:6b:ff:83:
        7e:b5:22:61:65:5a:5b:25:fd:2a:d8:54:96:cd:0b:45:f1:89:
        66:25:7b:10:78:ea:51:3a:f3:80:6c:3e:36:60:3a:f9:99:73:
        c7:bc:31:ef
-----BEGIN CERTIFICATE-----
MIIDzDCCArSgAwIBAgIBATANBgkqhkiG9w0BAQsFADBTMQswCQYDVQQGEwJVSzEX
MBUGA1UECAwOR3JlYXRlciBMb25kb24xDzANBgNVBAcMBkxvbmRvbjEMMAoGA1UE
CgwDc3lrMQwwCgYDVQQLDANkc3kwHhcNMjMwNzIxMDcxNzQ1WhcNMjQwNzIwMDcx
NzQ1WjBWMQswCQYDVQQGEwJVSzEXMBUGA1UECAwOR3JlYXRlciBMb25kb24xDDAK
BgNVBAoMA3N5azEMMAoGA1UECwwDZHN5MRIwEAYDVQQDDAlsb2NhbGhvc3QwggEi
MA0GCSqGSIb3DQEBAQUAA4IBDwAwggEKAoIBAQC++RP+IhFpGTLs81h7DaLtYgzT
4oY/I5rvbB19I5/SAldRaE3g50QGcQUiC9us9m6LJTUGkYUgPc3mirxmDq0UdM+W
lYbGZs41RiVvS1D34quDrKxvA2zNkKhCIbCSq5M6R0BgTuXvU8FqELGADNBN/mT3
FwMZt049ikvFyHgxe7/DukJsrFHozMKJfy23mc6Fm7FAyMbcOGRTE8uTBumJYaQ5
+mLqDtaXvkyBZA5O0C+fD7l+z36jnoLpd3wRT2oeS26jEPLIN1T0b5Ct44RU0pVI
sor5VTsYdjrEMYIlyR7uI9fXap+YjEKv65pvulmpiFP8htQxTNXxy2cg/GqjAgMB
AAGjgacwgaQwCQYDVR0TBAIwADAdBgNVHQ4EFgQUZgUysk4BaZwJ5QejLn/i1HYt
beYweAYDVR0jBHEwb6FXpFUwUzELMAkGA1UEBhMCVUsxFzAVBgNVBAgMDkdyZWF0
ZXIgTG9uZG9uMQ8wDQYDVQQHDAZMb25kb24xDDAKBgNVBAoMA3N5azEMMAoGA1UE
CwwDZHN5ghQZqL30mWPN0gGFUbpH4/aDqQYSnzANBgkqhkiG9w0BAQsFAAOCAQEA
UfD3XWhlwZz0CsD1o7ZFtdN7Urgiy+5icD8DRXlJ/01W/VMwGIui1VzICxS3ELvh
NmX8l3NqVn9ZS37IUr/Ubesmh+pdyhBvhiFcrp2QtT2LxhljvqTxTWbBAN2vzPmS
+T3NB6jHw7cUEmzx6NZIXgiDYx00WH5ERAmPdZcKGmAF3uvxdAD+Iw3cDEklaIAY
q/2kXhxf+U5VlUswHDrZa1+wRc8ZAjvTza9osA2zNvZHvrBXYOwO93qZNvye94Fx
Yg1s199acoA+KMKStq16U0WWjrPwa/+DfrUiYWVaWyX9KthUls0LRfGJZiV7EHjq
UTrzgGw+NmA6+Zlzx7wx7w==
-----END CERTIFICATE-----
